; ModuleID = '34/485.c'
source_filename = "34/485.c"
target datalayout = "e-m:e-p270:32:32-p271:32:32-p272:64:64-i64:64-f80:128-n8:16:32:64-S128"
target triple = "x86_64-pc-linux-gnu"

@.str = private unnamed_addr constant [3 x i8] c"%d\00", align 1
@.str.1 = private unnamed_addr constant [9 x i8] c"%d/2=%d\0A\00", align 1
@.str.2 = private unnamed_addr constant [11 x i8] c"%d*3+1=%d\0A\00", align 1
@.str.3 = private unnamed_addr constant [5 x i8] c"End\0A\00", align 1

; Function Attrs: noinline nounwind uwtable
define dso_local i32 @main() #0 {
  %1 = alloca i32, align 4
  %2 = alloca i32, align 4
  %3 = alloca i32, align 4
  %4 = alloca [1000 x i32], align 16
  store i32 0, i32* %1, align 4
  %5 = call i32 (i8*, ...) @__isoc99_scanf(i8* getelementptr inbounds ([3 x i8], [3 x i8]* @.str, i64 0, i64 0), i32* %2)
  %6 = load i32, i32* %2, align 4
  %7 = getelementptr inbounds [1000 x i32], [1000 x i32]* %4, i64 0, i64 0
  store i32 %6, i32* %7, align 16
  store i32 0, i32* %3, align 4
  br label %8

8:                                                ; preds = %63, %0
  %9 = load i32, i32* %3, align 4
  %10 = sext i32 %9 to i64
  %11 = getelementptr inbounds [1000 x i32], [1000 x i32]* %4, i64 0, i64 %10
  %12 = load i32, i32* %11, align 4
  %13 = icmp ne i32 %12, 1
  br i1 %13, label %14, label %66

14:                                               ; preds = %8
  %15 = load i32, i32* %3, align 4
  %16 = sext i32 %15 to i64
  %17 = getelementptr inbounds [1000 x i32], [1000 x i32]* %4, i64 0, i64 %16
  %18 = load i32, i32* %17, align 4
  %19 = srem i32 %18, 2
  %20 = icmp eq i32 %19, 0
  br i1 %20, label %21, label %41

21:                                               ; preds = %14
  %22 = load i32, i32* %3, align 4
  %23 = sext i32 %22 to i64
  %24 = getelementptr inbounds [1000 x i32], [1000 x i32]* %4, i64 0, i64 %23
  %25 = load i32, i32* %24, align 4
  %26 = sdiv i32 %25, 2
  %27 = load i32, i32* %3, align 4
  %28 = add nsw i32 %27, 1
  %29 = sext i32 %28 to i64
  %30 = getelementptr inbounds [1000 x i32], [1000 x i32]* %4, i64 0, i64 %29
  store i32 %26, i32* %30, align 4
  %31 = load i32, i32* %3, align 4
  %32 = sext i32 %31 to i64
  %33 = getelementptr inbounds [1000 x i32], [1000 x i32]* %4, i64 0, i64 %32
  %34 = load i32, i32* %33, align 4
  %35 = load i32, i32* %3, align 4
  %36 = add nsw i32 %35, 1
  %37 = sext i32 %36 to i64
  %38 = getelementptr inbounds [1000 x i32], [1000 x i32]* %4, i64 0, i64 %37
  %39 = load i32, i32* %38, align 4
  %40 = call i32 (i8*, ...) @printf(i8* getelementptr inbounds ([9 x i8], [9 x i8]* @.str.1, i64 0, i64 0), i32 %34, i32 %39)
  br label %62

41:                                               ; preds = %14
  %42 = load i32, i32* %3, align 4
  %43 = sext i32 %42 to i64
  %44 = getelementptr inbounds [1000 x i32], [1000 x i32]* %4, i64 0, i64 %43
  %45 = load i32, i32* %44, align 4
  %46 = mul nsw i32 3, %45
  %47 = add nsw i32 %46, 1
  %48 = load i32, i32* %3, align 4
  %49 = add nsw i32 %48, 1
  %50 = sext i32 %49 to i64
  %51 = getelementptr inbounds [1000 x i32], [1000 x i32]* %4, i64 0, i64 %50
  store i32 %47, i32* %51, align 4
  %52 = load i32, i32* %3, align 4
  %53 = sext i32 %52 to i64
  %54 = getelementptr inbounds [1000 x i32], [1000 x i32]* %4, i64 0, i64 %53
  %55 = load i32, i32* %54, align 4
  %56 = load i32, i32* %3, align 4
  %57 = add nsw i32 %56, 1
  %58 = sext i32 %57 to i64
  %59 = getelementptr inbounds [1000 x i32], [1000 x i32]* %4, i64 0, i64 %58
  %60 = load i32, i32* %59, align 4
  %61 = call i32 (i8*, ...) @printf(i8* getelementptr inbounds ([11 x i8], [11 x i8]* @.str.2, i64 0, i64 0), i32 %55, i32 %60)
  br label %62

62:                                               ; preds = %41, %21
  br label %63

63:                                               ; preds = %62
  %64 = load i32, i32* %3, align 4
  %65 = add nsw i32 %64, 1
  store i32 %65, i32* %3, align 4
  br label %8

66:                                               ; preds = %8
  %67 = call i32 (i8*, ...) @printf(i8* getelementptr inbounds ([5 x i8], [5 x i8]* @.str.3, i64 0, i64 0))
  ret i32 0
}

declare dso_local i32 @__isoc99_scanf(i8*, ...) #1

declare dso_local i32 @printf(i8*, ...) #1


!llvm.module.flags = !{!0}
!llvm.ident = !{!1}

!0 = !{i32 1, !"wchar_size", i32 4}
!1 = !{!"clang version 10.0.0-4ubuntu1 "}
